target datalayout = "e-m:e-p270:32:32-p271:32:32-p272:64:64-i64:64-i128:128-f80:128-n8:16:32:64-S128"
target triple = "x86_64-pc-linux-gnu"

%struct.SResource = type { ptr, i8, i8, i32, i32, i32, i32, i32, ptr, %struct.UString }
%struct.UString = type { ptr, i32, i32 }
%struct.SRBRoot = type { ptr, ptr, i32, i32, i8, i8, i8, ptr, ptr, i32, i32, i32, i32, i32, %"class.icu_77::UnicodeString", i32, ptr, i32, i32, i32, ptr }
%"class.icu_77::UnicodeString" = type { %"class.icu_77::Replaceable", %"union.icu_77::UnicodeString::StackBufferOrFields" }
%"class.icu_77::Replaceable" = type { %"class.icu_77::UObject" }
%"class.icu_77::UObject" = type { ptr }
%"union.icu_77::UnicodeString::StackBufferOrFields" = type { %struct.anon.0, [32 x i8] }
%struct.anon.0 = type { i16, i32, i32, ptr }
%class.ContainerResource = type { %struct.SResource, i32, ptr }
%class.TableResource = type { %class.ContainerResource, i8, ptr }

@_ZL11kNoResource = internal global %struct.SResource zeroinitializer, align 8
@_ZL14gFormatVersion = internal global i32 3, align 4
@.str = private unnamed_addr constant [55 x i8] c"duplicate key '%s' in table, first appeared at line %d\00", align 1

; Function Attrs: inlinehint mustprogress nounwind uwtable
define internal noundef signext i8 @_ZL9U_FAILURE10UErrorCode(i32 noundef %0) #9 {
  %2 = alloca i32, align 4
  store i32 %0, ptr %2, align 4, !tbaa !45
  %3 = load i32, ptr %2, align 4, !tbaa !45
  %4 = icmp sgt i32 %3, 0
  %5 = zext i1 %4 to i8
  ret i8 %5
}

; Function Attrs: mustprogress uwtable
define dso_local void @_ZN13TableResource3addEP9SResourceiR10UErrorCode(ptr noundef nonnull align 8 dereferenceable(88) %0, ptr noundef %1, i32 noundef %2, ptr noundef nonnull align 4 dereferenceable(4) %3) #5 align 2 {
  %5 = alloca ptr, align 8
  %6 = alloca ptr, align 8
  %7 = alloca i32, align 4
  %8 = alloca ptr, align 8
  %9 = alloca ptr, align 8
  %10 = alloca ptr, align 8
  %11 = alloca ptr, align 8
  %12 = alloca ptr, align 8
  %13 = alloca i32, align 4
  %14 = alloca i32, align 4
  store ptr %0, ptr %5, align 8, !tbaa !59
  store ptr %1, ptr %6, align 8, !tbaa !24
  store i32 %2, ptr %7, align 4, !tbaa !23
  store ptr %3, ptr %8, align 8, !tbaa !44
  %15 = load ptr, ptr %5, align 8
  %16 = load ptr, ptr %8, align 8, !tbaa !44
  %17 = load i32, ptr %16, align 4, !tbaa !45
  %18 = call noundef signext i8 @_ZL9U_FAILURE10UErrorCode(i32 noundef %17)
  %19 = icmp ne i8 %18, 0
  br i1 %19, label %26, label %20

20:                                               ; preds = %4
  %21 = load ptr, ptr %6, align 8, !tbaa !24
  %22 = icmp eq ptr %21, null
  br i1 %22, label %26, label %23

23:                                               ; preds = %20
  %24 = load ptr, ptr %6, align 8, !tbaa !24
  %25 = icmp eq ptr %24, @_ZL11kNoResource
  br i1 %25, label %26, label %27

26:                                               ; preds = %23, %20, %4
  br label %122

27:                                               ; preds = %23
  %28 = load i32, ptr %7, align 4, !tbaa !23
  %29 = load ptr, ptr %6, align 8, !tbaa !24
  %30 = getelementptr inbounds nuw %struct.SResource, ptr %29, i32 0, i32 7
  store i32 %28, ptr %30, align 4, !tbaa !37
  %31 = getelementptr inbounds nuw %class.ContainerResource, ptr %15, i32 0, i32 1
  %32 = load i32, ptr %31, align 8, !tbaa !61
  %33 = add i32 %32, 1
  store i32 %33, ptr %31, align 8, !tbaa !61
  %34 = getelementptr inbounds nuw %class.ContainerResource, ptr %15, i32 0, i32 2
  %35 = load ptr, ptr %34, align 8, !tbaa !55
  %36 = icmp eq ptr %35, null
  br i1 %36, label %37, label %42

37:                                               ; preds = %27
  %38 = load ptr, ptr %6, align 8, !tbaa !24
  %39 = getelementptr inbounds nuw %class.ContainerResource, ptr %15, i32 0, i32 2
  store ptr %38, ptr %39, align 8, !tbaa !55
  %40 = load ptr, ptr %6, align 8, !tbaa !24
  %41 = getelementptr inbounds nuw %struct.SResource, ptr %40, i32 0, i32 8
  store ptr null, ptr %41, align 8, !tbaa !38
  br label %122

42:                                               ; preds = %27
  call void @llvm.lifetime.start.p0(i64 8, ptr %9) #3
  %43 = getelementptr inbounds nuw %class.TableResource, ptr %15, i32 0, i32 2
  %44 = load ptr, ptr %43, align 8, !tbaa !62
  %45 = getelementptr inbounds nuw %struct.SRBRoot, ptr %44, i32 0, i32 7
  %46 = load ptr, ptr %45, align 8, !tbaa !64
  %47 = load ptr, ptr %6, align 8, !tbaa !24
  %48 = getelementptr inbounds nuw %struct.SResource, ptr %47, i32 0, i32 5
  %49 = load i32, ptr %48, align 4, !tbaa !35
  %50 = sext i32 %49 to i64
  %51 = getelementptr inbounds i8, ptr %46, i64 %50
  store ptr %51, ptr %9, align 8, !tbaa !41
  call void @llvm.lifetime.start.p0(i64 8, ptr %10) #3
  %52 = getelementptr inbounds nuw %class.ContainerResource, ptr %15, i32 0, i32 2
  %53 = load ptr, ptr %52, align 8, !tbaa !55
  store ptr %53, ptr %10, align 8, !tbaa !24
  call void @llvm.lifetime.start.p0(i64 8, ptr %11) #3
  store ptr null, ptr %11, align 8, !tbaa !24
  br label %54

54:                                               ; preds = %113, %42
  %55 = load ptr, ptr %10, align 8, !tbaa !24
  %56 = icmp ne ptr %55, null
  br i1 %56, label %57, label %114

57:                                               ; preds = %54
  call void @llvm.lifetime.start.p0(i64 8, ptr %12) #3
  %58 = getelementptr inbounds nuw %class.TableResource, ptr %15, i32 0, i32 2
  %59 = load ptr, ptr %58, align 8, !tbaa !62
  %60 = getelementptr inbounds nuw %struct.SRBRoot, ptr %59, i32 0, i32 7
  %61 = load ptr, ptr %60, align 8, !tbaa !64
  %62 = load ptr, ptr %10, align 8, !tbaa !24
  %63 = getelementptr inbounds nuw %struct.SResource, ptr %62, i32 0, i32 5
  %64 = load i32, ptr %63, align 4, !tbaa !35
  %65 = sext i32 %64 to i64
  %66 = getelementptr inbounds i8, ptr %61, i64 %65
  store ptr %66, ptr %12, align 8, !tbaa !41
  call void @llvm.lifetime.start.p0(i64 4, ptr %13) #3
  %67 = load i32, ptr @_ZL14gFormatVersion, align 4, !tbaa !23
  %68 = icmp eq i32 %67, 1
  br i1 %68, label %70, label %69

69:                                               ; preds = %57
  br i1 true, label %70, label %74

70:                                               ; preds = %69, %57
  %71 = load ptr, ptr %12, align 8, !tbaa !41
  %72 = load ptr, ptr %9, align 8, !tbaa !41
  %73 = call i32 @strcmp(ptr noundef %71, ptr noundef %72) #22
  store i32 %73, ptr %13, align 4, !tbaa !23
  br label %78

74:                                               ; preds = %69
  %75 = load ptr, ptr %12, align 8, !tbaa !41
  %76 = load ptr, ptr %9, align 8, !tbaa !41
  %77 = call i32 @strcmp(ptr noundef %75, ptr noundef %76) #22
  store i32 %77, ptr %13, align 4, !tbaa !23
  br label %78

78:                                               ; preds = %74, %70
  %79 = load i32, ptr %13, align 4, !tbaa !23
  %80 = icmp slt i32 %79, 0
  br i1 %80, label %81, label %86

81:                                               ; preds = %78
  %82 = load ptr, ptr %10, align 8, !tbaa !24
  store ptr %82, ptr %11, align 8, !tbaa !24
  %83 = load ptr, ptr %10, align 8, !tbaa !24
  %84 = getelementptr inbounds nuw %struct.SResource, ptr %83, i32 0, i32 8
  %85 = load ptr, ptr %84, align 8, !tbaa !38
  store ptr %85, ptr %10, align 8, !tbaa !24
  br label %110

86:                                               ; preds = %78
  %87 = load i32, ptr %13, align 4, !tbaa !23
  %88 = icmp sgt i32 %87, 0
  br i1 %88, label %89, label %103

89:                                               ; preds = %86
  %90 = load ptr, ptr %11, align 8, !tbaa !24
  %91 = icmp eq ptr %90, null
  br i1 %91, label %92, label %95

92:                                               ; preds = %89
  %93 = load ptr, ptr %6, align 8, !tbaa !24
  %94 = getelementptr inbounds nuw %class.ContainerResource, ptr %15, i32 0, i32 2
  store ptr %93, ptr %94, align 8, !tbaa !55
  br label %99

95:                                               ; preds = %89
  %96 = load ptr, ptr %6, align 8, !tbaa !24
  %97 = load ptr, ptr %11, align 8, !tbaa !24
  %98 = getelementptr inbounds nuw %struct.SResource, ptr %97, i32 0, i32 8
  store ptr %96, ptr %98, align 8, !tbaa !38
  br label %99

99:                                               ; preds = %95, %92
  %100 = load ptr, ptr %10, align 8, !tbaa !24
  %101 = load ptr, ptr %6, align 8, !tbaa !24
  %102 = getelementptr inbounds nuw %struct.SResource, ptr %101, i32 0, i32 8
  store ptr %100, ptr %102, align 8, !tbaa !38
  store i32 1, ptr %14, align 4
  br label %111

103:                                              ; preds = %86
  %104 = load i32, ptr %7, align 4, !tbaa !23
  %105 = load ptr, ptr %12, align 8, !tbaa !41
  %106 = load ptr, ptr %10, align 8, !tbaa !24
  %107 = getelementptr inbounds nuw %struct.SResource, ptr %106, i32 0, i32 7
  %108 = load i32, ptr %107, align 4, !tbaa !37
  call void (i32, ptr, ...) @error(i32 noundef %104, ptr noundef @.str, ptr noundef %105, i32 noundef %108)
  %109 = load ptr, ptr %8, align 8, !tbaa !44
  store i32 16, ptr %109, align 4, !tbaa !45
  store i32 1, ptr %14, align 4
  br label %111

110:                                              ; preds = %81
  store i32 0, ptr %14, align 4
  br label %111

111:                                              ; preds = %110, %103, %99
  call void @llvm.lifetime.end.p0(i64 4, ptr %13) #3
  call void @llvm.lifetime.end.p0(i64 8, ptr %12) #3
  %112 = load i32, ptr %14, align 4
  switch i32 %112, label %120 [
    i32 0, label %113
  ]

113:                                              ; preds = %111
  br label %54, !llvm.loop !65

114:                                              ; preds = %54
  %115 = load ptr, ptr %6, align 8, !tbaa !24
  %116 = load ptr, ptr %11, align 8, !tbaa !24
  %117 = getelementptr inbounds nuw %struct.SResource, ptr %116, i32 0, i32 8
  store ptr %115, ptr %117, align 8, !tbaa !38
  %118 = load ptr, ptr %6, align 8, !tbaa !24
  %119 = getelementptr inbounds nuw %struct.SResource, ptr %118, i32 0, i32 8
  store ptr null, ptr %119, align 8, !tbaa !38
  store i32 0, ptr %14, align 4
  br label %120

120:                                              ; preds = %114, %111
  call void @llvm.lifetime.end.p0(i64 8, ptr %11) #3
  call void @llvm.lifetime.end.p0(i64 8, ptr %10) #3
  call void @llvm.lifetime.end.p0(i64 8, ptr %9) #3
  %121 = load i32, ptr %14, align 4
  switch i32 %121, label %123 [
    i32 0, label %122
    i32 1, label %122
  ]

122:                                              ; preds = %26, %37, %120, %120
  ret void

123:                                              ; preds = %120
  unreachable
}