; Function Attrs: mustprogress uwtable
define dso_local void @_ZN13TableResource3addEP9SResourceiR10UErrorCode(ptr noundef nonnull align 8 captures(none) dereferenceable(88) %0, ptr noundef %1, i32 noundef %2, ptr noundef nonnull align 4 captures(none) dereferenceable(4) %3) local_unnamed_addr #7 align 2 {
  %5 = load i32, ptr %3, align 4, !tbaa !22
  %6 = icmp sgt i32 %5, 0
  %7 = icmp eq ptr %1, null
  %or.cond = or i1 %7, %6
  %8 = icmp eq ptr %1, @_ZL11kNoResource
  %or.cond3 = or i1 %8, %or.cond
  br i1 %or.cond3, label %.thread, label %9

9:                                                ; preds = %4
  %10 = getelementptr inbounds nuw i8, ptr %1, i64 28
  store i32 %2, ptr %10, align 4, !tbaa !18
  %11 = getelementptr inbounds nuw i8, ptr %0, i64 56
  %12 = load i32, ptr %11, align 8, !tbaa !42
  %13 = add i32 %12, 1
  store i32 %13, ptr %11, align 8, !tbaa !42
  %14 = getelementptr inbounds nuw i8, ptr %0, i64 64
  %15 = load ptr, ptr %14, align 8, !tbaa !38
  %16 = icmp eq ptr %15, null
  br i1 %16, label %17, label %19

17:                                               ; preds = %9
  store ptr %1, ptr %14, align 8, !tbaa !38
  %18 = getelementptr inbounds nuw i8, ptr %1, i64 32
  store ptr null, ptr %18, align 8, !tbaa !19
  br label %.thread

19:                                               ; preds = %9
  %20 = getelementptr inbounds nuw i8, ptr %0, i64 80
  %21 = load ptr, ptr %20, align 8, !tbaa !43
  %22 = getelementptr inbounds nuw i8, ptr %21, i64 32
  %23 = load ptr, ptr %22, align 8, !tbaa !34
  %24 = getelementptr inbounds nuw i8, ptr %1, i64 20
  %25 = load i32, ptr %24, align 4, !tbaa !36
  %26 = sext i32 %25 to i64
  %27 = getelementptr inbounds i8, ptr %23, i64 %26
  %28 = getelementptr inbounds nuw i8, ptr %15, i64 20
  %29 = load i32, ptr %28, align 4, !tbaa !36
  %30 = sext i32 %29 to i64
  %31 = getelementptr inbounds i8, ptr %23, i64 %30
  %32 = tail call i32 @strcmp(ptr noundef nonnull dereferenceable(1) %31, ptr noundef nonnull dereferenceable(1) %27) #32
  %33 = icmp slt i32 %32, 0
  br i1 %33, label %.lr.ph, label %._crit_edge

34:                                               ; preds = %.lr.ph
  %35 = getelementptr inbounds nuw i8, ptr %52, i64 20
  %36 = load i32, ptr %35, align 4, !tbaa !36
  %37 = sext i32 %36 to i64
  %38 = getelementptr inbounds i8, ptr %23, i64 %37
  %39 = tail call i32 @strcmp(ptr noundef nonnull dereferenceable(1) %38, ptr noundef nonnull dereferenceable(1) %27) #32
  %40 = icmp slt i32 %39, 0
  br i1 %40, label %.lr.ph, label %._crit_edge, !llvm.loop !45

._crit_edge:                                      ; preds = %34, %19
  %.03346.lcssa = phi ptr [ %15, %19 ], [ %52, %34 ]
  %.03445.lcssa = phi ptr [ null, %19 ], [ %.0334664, %34 ]
  %.lcssa60 = phi ptr [ %31, %19 ], [ %38, %34 ]
  %.lcssa = phi i32 [ %32, %19 ], [ %39, %34 ]
  %.not39 = icmp eq i32 %.lcssa, 0
  br i1 %.not39, label %48, label %41

41:                                               ; preds = %._crit_edge
  %42 = icmp eq ptr %.03445.lcssa, null
  br i1 %42, label %43, label %44

43:                                               ; preds = %41
  store ptr %1, ptr %14, align 8, !tbaa !38
  br label %46

44:                                               ; preds = %41
  %45 = getelementptr inbounds nuw i8, ptr %.03445.lcssa, i64 32
  store ptr %1, ptr %45, align 8, !tbaa !19
  br label %46

46:                                               ; preds = %44, %43
  %47 = getelementptr inbounds nuw i8, ptr %1, i64 32
  store ptr %.03346.lcssa, ptr %47, align 8, !tbaa !19
  br label %.thread

48:                                               ; preds = %._crit_edge
  %49 = getelementptr inbounds nuw i8, ptr %.03346.lcssa, i64 28
  %50 = load i32, ptr %49, align 4, !tbaa !18
  tail call void (i32, ptr, ...) @error(i32 noundef %2, ptr noundef nonnull @.str, ptr noundef nonnull %.lcssa60, i32 noundef %50)
  store i32 16, ptr %3, align 4, !tbaa !22
  br label %.thread

.lr.ph:                                           ; preds = %19, %34
  %.0334664 = phi ptr [ %52, %34 ], [ %15, %19 ]
  %51 = getelementptr inbounds nuw i8, ptr %.0334664, i64 32
  %52 = load ptr, ptr %51, align 8, !tbaa !19
  %.not = icmp eq ptr %52, null
  br i1 %.not, label %53, label %34, !llvm.loop !45

53:                                               ; preds = %.lr.ph
  %54 = getelementptr inbounds nuw i8, ptr %.0334664, i64 32
  store ptr %1, ptr %54, align 8, !tbaa !19
  %55 = getelementptr inbounds nuw i8, ptr %1, i64 32
  store ptr null, ptr %55, align 8, !tbaa !19
  br label %.thread

.thread:                                          ; preds = %46, %48, %53, %4, %17
  ret void
}